target datalayout = "e-m:e-p270:32:32-p271:32:32-p272:64:64-i64:64-i128:128-f80:128-n8:16:32:64-S128"
target triple = "x86_64-pc-linux-gnu"

%union.pthread_mutex_t = type { %struct.__pthread_mutex_s }
%struct.__pthread_mutex_s = type { i32, i32, i32, i32, i32, i16, i16, %struct.__pthread_internal_list }
%struct.__pthread_internal_list = type { ptr, ptr }
%struct.___itt_global = type { [8 x i8], i64, i64, i64, i64, i64, i64, %union.pthread_mutex_t, ptr, ptr, ptr, ptr, ptr, ptr, ptr, ptr, i32, ptr, i32, ptr, ptr }
%struct.__va_list_tag = type { i32, i32, ptr, ptr }

; Function Attrs: nounwind uwtable
define internal void @__itt_report_error(i32 noundef %0, ...) #0 {
  %2 = alloca i32, align 4
  %3 = alloca [1 x %struct.__va_list_tag], align 16
  %4 = alloca ptr, align 8
  store i32 %0, ptr %2, align 4, !tbaa !24
  call void @llvm.lifetime.start.p0(i64 24, ptr %3) #8
  %5 = getelementptr inbounds [1 x %struct.__va_list_tag], ptr %3, i64 0, i64 0
  call void @llvm.va_start.p0(ptr %5)
  %6 = load ptr, ptr getelementptr inbounds nuw (%struct.___itt_global, ptr @__itt__ittapi_global, i32 0, i32 9), align 8, !tbaa !127
  %7 = icmp ne ptr %6, null
  br i1 %7, label %8, label %15

8:                                                ; preds = %1
  call void @llvm.lifetime.start.p0(i64 8, ptr %4) #8
  %9 = load ptr, ptr getelementptr inbounds nuw (%struct.___itt_global, ptr @__itt__ittapi_global, i32 0, i32 9), align 8, !tbaa !127
  %10 = ptrtoint ptr %9 to i64
  %11 = inttoptr i64 %10 to ptr
  store ptr %11, ptr %4, align 8, !tbaa !21
  %12 = load ptr, ptr %4, align 8, !tbaa !21
  %13 = load i32, ptr %2, align 4, !tbaa !24
  %14 = getelementptr inbounds [1 x %struct.__va_list_tag], ptr %3, i64 0, i64 0
  call void %12(i32 noundef %13, ptr noundef %14)
  call void @llvm.lifetime.end.p0(i64 8, ptr %4) #8
  br label %15

15:                                               ; preds = %8, %1
  %16 = getelementptr inbounds [1 x %struct.__va_list_tag], ptr %3, i64 0, i64 0
  call void @llvm.va_end.p0(ptr %16)
  call void @llvm.lifetime.end.p0(i64 24, ptr %3) #8
  ret void
}